target datalayout = "e-m:e-p270:32:32-p271:32:32-p272:64:64-i64:64-i128:128-f80:128-n8:16:32:64-S128"
target triple = "x86_64-pc-linux-gnu"

%class.btShapeHull = type { %class.btAlignedObjectArray, %class.btAlignedObjectArray.0, i32, ptr }
%class.btAlignedObjectArray = type <{ [4 x i8], i32, i32, [4 x i8], ptr, i8, [7 x i8] }>
%class.btAlignedObjectArray.0 = type <{ [4 x i8], i32, i32, [4 x i8], ptr, i8, [7 x i8] }>

; Function Attrs: mustprogress uwtable
define linkonce_odr dso_local void @_ZN18btAlignedAllocatorI9btVector3Lj16EE10deallocateEPS0_(ptr noundef nonnull align 1 dereferenceable(1) %0, ptr noundef %1) #2 comdat align 2 {
  %3 = alloca ptr, align 8
  %4 = alloca ptr, align 8
  store ptr %0, ptr %3, align 8, !tbaa !98
  store ptr %1, ptr %4, align 8, !tbaa !48
  %5 = load ptr, ptr %4, align 8, !tbaa !48
  call void @_Z21btAlignedFreeInternalPv(ptr noundef %5)
  ret void
}

; Function Attrs: mustprogress uwtable
define linkonce_odr dso_local void @_ZN18btAlignedAllocatorIjLj16EE10deallocateEPj(ptr noundef nonnull align 1 dereferenceable(1) %0, ptr noundef %1) #2 comdat align 2 {
  %3 = alloca ptr, align 8
  %4 = alloca ptr, align 8
  store ptr %0, ptr %3, align 8, !tbaa !102
  store ptr %1, ptr %4, align 8, !tbaa !65
  %5 = load ptr, ptr %4, align 8, !tbaa !65
  call void @_Z21btAlignedFreeInternalPv(ptr noundef %5)
  ret void
}

; Function Attrs: inlinehint mustprogress nounwind uwtable
define linkonce_odr dso_local void @_ZN20btAlignedObjectArrayI9btVector3E4initEv(ptr noundef nonnull align 8 dereferenceable(25) %0) #7 comdat align 2 {
  %2 = alloca ptr, align 8
  store ptr %0, ptr %2, align 8, !tbaa !26
  %3 = load ptr, ptr %2, align 8
  %4 = getelementptr inbounds nuw %class.btAlignedObjectArray, ptr %3, i32 0, i32 5
  store i8 1, ptr %4, align 8, !tbaa !100
  %5 = getelementptr inbounds nuw %class.btAlignedObjectArray, ptr %3, i32 0, i32 4
  store ptr null, ptr %5, align 8, !tbaa !62
  %6 = getelementptr inbounds nuw %class.btAlignedObjectArray, ptr %3, i32 0, i32 1
  store i32 0, ptr %6, align 4, !tbaa !64
  %7 = getelementptr inbounds nuw %class.btAlignedObjectArray, ptr %3, i32 0, i32 2
  store i32 0, ptr %7, align 8, !tbaa !101
  ret void
}

; Function Attrs: inlinehint mustprogress uwtable
define linkonce_odr dso_local void @_ZN20btAlignedObjectArrayI9btVector3E10deallocateEv(ptr noundef nonnull align 8 dereferenceable(25) %0) #3 comdat align 2 {
  %2 = alloca ptr, align 8
  store ptr %0, ptr %2, align 8, !tbaa !26
  %3 = load ptr, ptr %2, align 8
  %4 = getelementptr inbounds nuw %class.btAlignedObjectArray, ptr %3, i32 0, i32 4
  %5 = load ptr, ptr %4, align 8, !tbaa !62
  %6 = icmp ne ptr %5, null
  br i1 %6, label %7, label %16

7:                                                ; preds = %1
  %8 = getelementptr inbounds nuw %class.btAlignedObjectArray, ptr %3, i32 0, i32 5
  %9 = load i8, ptr %8, align 8, !tbaa !100, !range !94, !noundef !95
  %10 = trunc i8 %9 to i1
  br i1 %10, label %11, label %14

11:                                               ; preds = %7
  %12 = getelementptr inbounds nuw %class.btAlignedObjectArray, ptr %3, i32 0, i32 4
  %13 = load ptr, ptr %12, align 8, !tbaa !62
  call void @_ZN18btAlignedAllocatorI9btVector3Lj16EE10deallocateEPS0_(ptr noundef nonnull align 1 dereferenceable(1) %3, ptr noundef %13)
  br label %14

14:                                               ; preds = %11, %7
  %15 = getelementptr inbounds nuw %class.btAlignedObjectArray, ptr %3, i32 0, i32 4
  store ptr null, ptr %15, align 8, !tbaa !62
  br label %16

16:                                               ; preds = %14, %1
  ret void
}

; Function Attrs: inlinehint mustprogress nounwind uwtable
define linkonce_odr dso_local void @_ZN20btAlignedObjectArrayI9btVector3E7destroyEii(ptr noundef nonnull align 8 dereferenceable(25) %0, i32 noundef %1, i32 noundef %2) #7 comdat align 2 {
  %4 = alloca ptr, align 8
  %5 = alloca i32, align 4
  %6 = alloca i32, align 4
  %7 = alloca i32, align 4
  store ptr %0, ptr %4, align 8, !tbaa !26
  store i32 %1, ptr %5, align 4, !tbaa !9
  store i32 %2, ptr %6, align 4, !tbaa !9
  call void @llvm.lifetime.start.p0(i64 4, ptr %7) #10
  %8 = load i32, ptr %5, align 4, !tbaa !9
  store i32 %8, ptr %7, align 4, !tbaa !9
  br label %9

9:                                                ; preds = %14, %3
  %10 = load i32, ptr %7, align 4, !tbaa !9
  %11 = load i32, ptr %6, align 4, !tbaa !9
  %12 = icmp slt i32 %10, %11
  br i1 %12, label %13, label %17

13:                                               ; preds = %9
  br label %14

14:                                               ; preds = %13
  %15 = load i32, ptr %7, align 4, !tbaa !9
  %16 = add nsw i32 %15, 1
  store i32 %16, ptr %7, align 4, !tbaa !9
  br label %9, !llvm.loop !106

17:                                               ; preds = %9
  call void @llvm.lifetime.end.p0(i64 4, ptr %7) #10
  ret void
}

; Function Attrs: inlinehint mustprogress nounwind uwtable
define linkonce_odr dso_local noundef i32 @_ZNK20btAlignedObjectArrayI9btVector3E4sizeEv(ptr noundef nonnull align 8 dereferenceable(25) %0) #7 comdat align 2 {
  %2 = alloca ptr, align 8
  store ptr %0, ptr %2, align 8, !tbaa !26
  %3 = load ptr, ptr %2, align 8
  %4 = getelementptr inbounds nuw %class.btAlignedObjectArray, ptr %3, i32 0, i32 1
  %5 = load i32, ptr %4, align 4, !tbaa !64
  ret i32 %5
}

; Function Attrs: inlinehint mustprogress nounwind uwtable
define linkonce_odr dso_local void @_ZN20btAlignedObjectArrayIjE4initEv(ptr noundef nonnull align 8 dereferenceable(25) %0) #7 comdat align 2 {
  %2 = alloca ptr, align 8
  store ptr %0, ptr %2, align 8, !tbaa !28
  %3 = load ptr, ptr %2, align 8
  %4 = getelementptr inbounds nuw %class.btAlignedObjectArray.0, ptr %3, i32 0, i32 5
  store i8 1, ptr %4, align 8, !tbaa !104
  %5 = getelementptr inbounds nuw %class.btAlignedObjectArray.0, ptr %3, i32 0, i32 4
  store ptr null, ptr %5, align 8, !tbaa !67
  %6 = getelementptr inbounds nuw %class.btAlignedObjectArray.0, ptr %3, i32 0, i32 1
  store i32 0, ptr %6, align 4, !tbaa !69
  %7 = getelementptr inbounds nuw %class.btAlignedObjectArray.0, ptr %3, i32 0, i32 2
  store i32 0, ptr %7, align 8, !tbaa !105
  ret void
}

; Function Attrs: inlinehint mustprogress uwtable
define linkonce_odr dso_local void @_ZN20btAlignedObjectArrayIjE10deallocateEv(ptr noundef nonnull align 8 dereferenceable(25) %0) #3 comdat align 2 {
  %2 = alloca ptr, align 8
  store ptr %0, ptr %2, align 8, !tbaa !28
  %3 = load ptr, ptr %2, align 8
  %4 = getelementptr inbounds nuw %class.btAlignedObjectArray.0, ptr %3, i32 0, i32 4
  %5 = load ptr, ptr %4, align 8, !tbaa !67
  %6 = icmp ne ptr %5, null
  br i1 %6, label %7, label %16

7:                                                ; preds = %1
  %8 = getelementptr inbounds nuw %class.btAlignedObjectArray.0, ptr %3, i32 0, i32 5
  %9 = load i8, ptr %8, align 8, !tbaa !104, !range !94, !noundef !95
  %10 = trunc i8 %9 to i1
  br i1 %10, label %11, label %14

11:                                               ; preds = %7
  %12 = getelementptr inbounds nuw %class.btAlignedObjectArray.0, ptr %3, i32 0, i32 4
  %13 = load ptr, ptr %12, align 8, !tbaa !67
  call void @_ZN18btAlignedAllocatorIjLj16EE10deallocateEPj(ptr noundef nonnull align 1 dereferenceable(1) %3, ptr noundef %13)
  br label %14

14:                                               ; preds = %11, %7
  %15 = getelementptr inbounds nuw %class.btAlignedObjectArray.0, ptr %3, i32 0, i32 4
  store ptr null, ptr %15, align 8, !tbaa !67
  br label %16

16:                                               ; preds = %14, %1
  ret void
}

; Function Attrs: inlinehint mustprogress nounwind uwtable
define linkonce_odr dso_local void @_ZN20btAlignedObjectArrayIjE7destroyEii(ptr noundef nonnull align 8 dereferenceable(25) %0, i32 noundef %1, i32 noundef %2) #7 comdat align 2 {
  %4 = alloca ptr, align 8
  %5 = alloca i32, align 4
  %6 = alloca i32, align 4
  %7 = alloca i32, align 4
  store ptr %0, ptr %4, align 8, !tbaa !28
  store i32 %1, ptr %5, align 4, !tbaa !9
  store i32 %2, ptr %6, align 4, !tbaa !9
  call void @llvm.lifetime.start.p0(i64 4, ptr %7) #10
  %8 = load i32, ptr %5, align 4, !tbaa !9
  store i32 %8, ptr %7, align 4, !tbaa !9
  br label %9

9:                                                ; preds = %14, %3
  %10 = load i32, ptr %7, align 4, !tbaa !9
  %11 = load i32, ptr %6, align 4, !tbaa !9
  %12 = icmp slt i32 %10, %11
  br i1 %12, label %13, label %17

13:                                               ; preds = %9
  br label %14

14:                                               ; preds = %13
  %15 = load i32, ptr %7, align 4, !tbaa !9
  %16 = add nsw i32 %15, 1
  store i32 %16, ptr %7, align 4, !tbaa !9
  br label %9, !llvm.loop !107

17:                                               ; preds = %9
  call void @llvm.lifetime.end.p0(i64 4, ptr %7) #10
  ret void
}

; Function Attrs: inlinehint mustprogress nounwind uwtable
define linkonce_odr dso_local noundef i32 @_ZNK20btAlignedObjectArrayIjE4sizeEv(ptr noundef nonnull align 8 dereferenceable(25) %0) #7 comdat align 2 {
  %2 = alloca ptr, align 8
  store ptr %0, ptr %2, align 8, !tbaa !28
  %3 = load ptr, ptr %2, align 8
  %4 = getelementptr inbounds nuw %class.btAlignedObjectArray.0, ptr %3, i32 0, i32 1
  %5 = load i32, ptr %4, align 4, !tbaa !69
  ret i32 %5
}

; Function Attrs: mustprogress nounwind uwtable
define linkonce_odr dso_local void @_ZN20btAlignedObjectArrayI9btVector3ED2Ev(ptr noundef nonnull align 8 dereferenceable(25) %0) unnamed_addr #1 comdat align 2 personality ptr @__gxx_personality_v0 {
  %2 = alloca ptr, align 8
  store ptr %0, ptr %2, align 8, !tbaa !26
  %3 = load ptr, ptr %2, align 8
  invoke void @_ZN20btAlignedObjectArrayI9btVector3E5clearEv(ptr noundef nonnull align 8 dereferenceable(25) %3)
          to label %4 unwind label %5

4:                                                ; preds = %1
  ret void

5:                                                ; preds = %1
  %6 = landingpad { ptr, i32 }
          catch ptr null
  %7 = extractvalue { ptr, i32 } %6, 0
  call void @__clang_call_terminate(ptr %7) #11
  unreachable
}

; Function Attrs: mustprogress nounwind uwtable
define linkonce_odr dso_local void @_ZN20btAlignedObjectArrayIjED2Ev(ptr noundef nonnull align 8 dereferenceable(25) %0) unnamed_addr #1 comdat align 2 personality ptr @__gxx_personality_v0 {
  %2 = alloca ptr, align 8
  store ptr %0, ptr %2, align 8, !tbaa !28
  %3 = load ptr, ptr %2, align 8
  invoke void @_ZN20btAlignedObjectArrayIjE5clearEv(ptr noundef nonnull align 8 dereferenceable(25) %3)
          to label %4 unwind label %5

4:                                                ; preds = %1
  ret void

5:                                                ; preds = %1
  %6 = landingpad { ptr, i32 }
          catch ptr null
  %7 = extractvalue { ptr, i32 } %6, 0
  call void @__clang_call_terminate(ptr %7) #11
  unreachable
}

; Function Attrs: inlinehint mustprogress uwtable
define linkonce_odr dso_local void @_ZN20btAlignedObjectArrayI9btVector3E5clearEv(ptr noundef nonnull align 8 dereferenceable(25) %0) #3 comdat align 2 {
  %2 = alloca ptr, align 8
  store ptr %0, ptr %2, align 8, !tbaa !26
  %3 = load ptr, ptr %2, align 8
  %4 = call noundef i32 @_ZNK20btAlignedObjectArrayI9btVector3E4sizeEv(ptr noundef nonnull align 8 dereferenceable(25) %3)
  call void @_ZN20btAlignedObjectArrayI9btVector3E7destroyEii(ptr noundef nonnull align 8 dereferenceable(25) %3, i32 noundef 0, i32 noundef %4)
  call void @_ZN20btAlignedObjectArrayI9btVector3E10deallocateEv(ptr noundef nonnull align 8 dereferenceable(25) %3)
  call void @_ZN20btAlignedObjectArrayI9btVector3E4initEv(ptr noundef nonnull align 8 dereferenceable(25) %3)
  ret void
}

; Function Attrs: inlinehint mustprogress uwtable
define linkonce_odr dso_local void @_ZN20btAlignedObjectArrayIjE5clearEv(ptr noundef nonnull align 8 dereferenceable(25) %0) #3 comdat align 2 {
  %2 = alloca ptr, align 8
  store ptr %0, ptr %2, align 8, !tbaa !28
  %3 = load ptr, ptr %2, align 8
  %4 = call noundef i32 @_ZNK20btAlignedObjectArrayIjE4sizeEv(ptr noundef nonnull align 8 dereferenceable(25) %3)
  call void @_ZN20btAlignedObjectArrayIjE7destroyEii(ptr noundef nonnull align 8 dereferenceable(25) %3, i32 noundef 0, i32 noundef %4)
  call void @_ZN20btAlignedObjectArrayIjE10deallocateEv(ptr noundef nonnull align 8 dereferenceable(25) %3)
  call void @_ZN20btAlignedObjectArrayIjE4initEv(ptr noundef nonnull align 8 dereferenceable(25) %3)
  ret void
}

; Function Attrs: mustprogress nounwind uwtable
define dso_local void @_ZN11btShapeHullD2Ev(ptr noundef nonnull align 8 dereferenceable(80) %0) unnamed_addr #1 align 2 personality ptr @__gxx_personality_v0 {
  %2 = alloca ptr, align 8
  store ptr %0, ptr %2, align 8, !tbaa !12
  %3 = load ptr, ptr %2, align 8
  %4 = getelementptr inbounds nuw %class.btShapeHull, ptr %3, i32 0, i32 1
  invoke void @_ZN20btAlignedObjectArrayIjE5clearEv(ptr noundef nonnull align 8 dereferenceable(25) %4)
          to label %5 unwind label %10

5:                                                ; preds = %1
  %6 = getelementptr inbounds nuw %class.btShapeHull, ptr %3, i32 0, i32 0
  invoke void @_ZN20btAlignedObjectArrayI9btVector3E5clearEv(ptr noundef nonnull align 8 dereferenceable(25) %6)
          to label %7 unwind label %10

7:                                                ; preds = %5
  %8 = getelementptr inbounds nuw %class.btShapeHull, ptr %3, i32 0, i32 1
  call void @_ZN20btAlignedObjectArrayIjED2Ev(ptr noundef nonnull align 8 dereferenceable(25) %8) #10
  %9 = getelementptr inbounds nuw %class.btShapeHull, ptr %3, i32 0, i32 0
  call void @_ZN20btAlignedObjectArrayI9btVector3ED2Ev(ptr noundef nonnull align 8 dereferenceable(25) %9) #10
  ret void

10:                                               ; preds = %5, %1
  %11 = landingpad { ptr, i32 }
          catch ptr null
  %12 = extractvalue { ptr, i32 } %11, 0
  call void @__clang_call_terminate(ptr %12) #11
  unreachable
}