; Function Attrs: mustprogress nounwind uwtable
define dso_local void @_ZN11btShapeHullD2Ev(ptr noundef nonnull align 8 captures(none) dereferenceable(80) %0) unnamed_addr #1 align 2 personality ptr @__gxx_personality_v0 {
  %2 = getelementptr inbounds nuw i8, ptr %0, i64 48
  %3 = load ptr, ptr %2, align 8, !tbaa !23
  %.not.i.i = icmp eq ptr %3, null
  br i1 %.not.i.i, label %9, label %4

4:                                                ; preds = %1
  %5 = getelementptr inbounds nuw i8, ptr %0, i64 56
  %6 = load i8, ptr %5, align 8, !tbaa !22, !range !27, !noundef !28
  %7 = trunc nuw i8 %6 to i1
  br i1 %7, label %8, label %9

8:                                                ; preds = %4
  invoke void @_Z21btAlignedFreeInternalPv(ptr noundef nonnull %3)
          to label %9 unwind label %44

9:                                                ; preds = %4, %1, %8
  %10 = getelementptr inbounds nuw i8, ptr %0, i64 36
  %11 = getelementptr inbounds nuw i8, ptr %0, i64 56
  store i8 1, ptr %11, align 8, !tbaa !22
  store ptr null, ptr %2, align 8, !tbaa !23
  store i32 0, ptr %10, align 4, !tbaa !24
  %12 = getelementptr inbounds nuw i8, ptr %0, i64 40
  store i32 0, ptr %12, align 8, !tbaa !25
  %13 = getelementptr inbounds nuw i8, ptr %0, i64 16
  %14 = load ptr, ptr %13, align 8, !tbaa !19
  %.not.i.i1 = icmp eq ptr %14, null
  br i1 %.not.i.i1, label %.thread, label %15

15:                                               ; preds = %9
  %16 = getelementptr inbounds nuw i8, ptr %0, i64 24
  %17 = load i8, ptr %16, align 8, !tbaa !18, !range !27, !noundef !28
  %18 = trunc nuw i8 %17 to i1
  br i1 %18, label %19, label %.thread

19:                                               ; preds = %15
  invoke void @_Z21btAlignedFreeInternalPv(ptr noundef nonnull %14)
          to label %23 unwind label %44

.thread:                                          ; preds = %15, %9
  %20 = getelementptr inbounds nuw i8, ptr %0, i64 4
  %21 = getelementptr inbounds nuw i8, ptr %0, i64 24
  store i8 1, ptr %21, align 8, !tbaa !18
  store i32 0, ptr %20, align 4, !tbaa !20
  %22 = getelementptr inbounds nuw i8, ptr %0, i64 8
  store i32 0, ptr %22, align 8, !tbaa !21
  br label %_ZN20btAlignedObjectArrayIjED2Ev.exit.thread

23:                                               ; preds = %19
  %.pre = load ptr, ptr %2, align 8, !tbaa !23
  %24 = getelementptr inbounds nuw i8, ptr %0, i64 4
  %25 = getelementptr inbounds nuw i8, ptr %0, i64 24
  store i8 1, ptr %25, align 8, !tbaa !18
  store ptr null, ptr %13, align 8, !tbaa !19
  store i32 0, ptr %24, align 4, !tbaa !20
  %26 = getelementptr inbounds nuw i8, ptr %0, i64 8
  store i32 0, ptr %26, align 8, !tbaa !21
  %.not.i.i.i = icmp eq ptr %.pre, null
  br i1 %.not.i.i.i, label %_ZN20btAlignedObjectArrayIjED2Ev.exit.thread, label %27

27:                                               ; preds = %23
  %28 = load i8, ptr %11, align 8, !tbaa !22, !range !27, !noundef !28
  %29 = trunc nuw i8 %28 to i1
  br i1 %29, label %30, label %_ZN20btAlignedObjectArrayIjED2Ev.exit.thread

30:                                               ; preds = %27
  invoke void @_Z21btAlignedFreeInternalPv(ptr noundef nonnull %.pre)
          to label %_ZN20btAlignedObjectArrayIjED2Ev.exit unwind label %31

31:                                               ; preds = %30
  %32 = landingpad { ptr, i32 }
          catch ptr null
  %33 = extractvalue { ptr, i32 } %32, 0
  tail call void @__clang_call_terminate(ptr %33) #13
  unreachable

_ZN20btAlignedObjectArrayIjED2Ev.exit.thread:     ; preds = %23, %27, %.thread
  %.ph = phi ptr [ %22, %.thread ], [ %26, %27 ], [ %26, %23 ]
  %.ph6 = phi ptr [ %21, %.thread ], [ %25, %27 ], [ %25, %23 ]
  %.ph7 = phi ptr [ %20, %.thread ], [ %24, %27 ], [ %24, %23 ]
  store i8 1, ptr %11, align 8, !tbaa !22
  store ptr null, ptr %2, align 8, !tbaa !23
  store i32 0, ptr %10, align 4, !tbaa !24
  store i32 0, ptr %12, align 8, !tbaa !25
  br label %_ZN20btAlignedObjectArrayI9btVector3ED2Ev.exit

_ZN20btAlignedObjectArrayIjED2Ev.exit:            ; preds = %30
  %.pre4 = load ptr, ptr %13, align 8, !tbaa !19
  store i8 1, ptr %11, align 8, !tbaa !22
  store ptr null, ptr %2, align 8, !tbaa !23
  store i32 0, ptr %10, align 4, !tbaa !24
  store i32 0, ptr %12, align 8, !tbaa !25
  %.not.i.i.i3 = icmp eq ptr %.pre4, null
  br i1 %.not.i.i.i3, label %_ZN20btAlignedObjectArrayI9btVector3ED2Ev.exit, label %34

34:                                               ; preds = %_ZN20btAlignedObjectArrayIjED2Ev.exit
  %35 = load i8, ptr %25, align 8, !tbaa !18, !range !27, !noundef !28
  %36 = trunc nuw i8 %35 to i1
  br i1 %36, label %37, label %_ZN20btAlignedObjectArrayI9btVector3ED2Ev.exit

37:                                               ; preds = %34
  invoke void @_Z21btAlignedFreeInternalPv(ptr noundef nonnull %.pre4)
          to label %_ZN20btAlignedObjectArrayI9btVector3ED2Ev.exit unwind label %38

38:                                               ; preds = %37
  %39 = landingpad { ptr, i32 }
          catch ptr null
  %40 = extractvalue { ptr, i32 } %39, 0
  tail call void @__clang_call_terminate(ptr %40) #13
  unreachable

_ZN20btAlignedObjectArrayI9btVector3ED2Ev.exit:   ; preds = %_ZN20btAlignedObjectArrayIjED2Ev.exit.thread, %_ZN20btAlignedObjectArrayIjED2Ev.exit, %34, %37
  %41 = phi ptr [ %.ph7, %_ZN20btAlignedObjectArrayIjED2Ev.exit.thread ], [ %24, %_ZN20btAlignedObjectArrayIjED2Ev.exit ], [ %24, %34 ], [ %24, %37 ]
  %42 = phi ptr [ %.ph6, %_ZN20btAlignedObjectArrayIjED2Ev.exit.thread ], [ %25, %_ZN20btAlignedObjectArrayIjED2Ev.exit ], [ %25, %34 ], [ %25, %37 ]
  %43 = phi ptr [ %.ph, %_ZN20btAlignedObjectArrayIjED2Ev.exit.thread ], [ %26, %_ZN20btAlignedObjectArrayIjED2Ev.exit ], [ %26, %34 ], [ %26, %37 ]
  store i8 1, ptr %42, align 8, !tbaa !18
  store ptr null, ptr %13, align 8, !tbaa !19
  store i32 0, ptr %41, align 4, !tbaa !20
  store i32 0, ptr %43, align 8, !tbaa !21
  ret void

44:                                               ; preds = %19, %8
  %45 = landingpad { ptr, i32 }
          catch ptr null
  %46 = extractvalue { ptr, i32 } %45, 0
  tail call void @__clang_call_terminate(ptr %46) #13
  unreachable
}